; Function Attrs: mustprogress uwtable
define dso_local void @_ZN11V3LexerBase14switch_streamsEPSiPSo(ptr noundef nonnull align 8 dereferenceable(732) %0, ptr noundef %1, ptr noundef %2) unnamed_addr #4 align 2 {
  %.not = icmp eq ptr %1, null
  %4 = getelementptr inbounds i8, ptr %0, i64 48
  %spec.select = select i1 %.not, ptr %4, ptr %1
  %.not8 = icmp eq ptr %2, null
  %5 = getelementptr inbounds i8, ptr %0, i64 328
  %.0 = select i1 %.not8, ptr %5, ptr %2
  %6 = load ptr, ptr %0, align 8
  %7 = getelementptr inbounds i8, ptr %6, i64 80
  %8 = load ptr, ptr %7, align 8
  tail call void %8(ptr noundef nonnull align 8 dereferenceable(732) %0, ptr noundef nonnull align 8 dereferenceable(16) %spec.select, ptr noundef nonnull align 8 dereferenceable(8) %.0)
  ret void
}